; Function Attrs: mustprogress nounwind uwtable
define hidden void @_ZN9JavaCalls12call_specialEP9JavaValue6HandleP5KlassP6SymbolS6_P10JavaThread(ptr noundef %0, ptr %1, ptr noundef %2, ptr noundef %3, ptr noundef %4, ptr noundef %5) local_unnamed_addr #0 align 2 {
  %7 = alloca %class.JavaCallArguments, align 8
  %8 = getelementptr inbounds i8, ptr %7, i64 120
  store ptr null, ptr %8, align 8
  %9 = getelementptr inbounds i8, ptr %7, i64 8
  %10 = getelementptr inbounds i8, ptr %7, i64 88
  store ptr %9, ptr %10, align 8
  %11 = getelementptr inbounds i8, ptr %7, i64 73
  %12 = getelementptr inbounds i8, ptr %7, i64 96
  store ptr %11, ptr %12, align 8
  %13 = getelementptr inbounds i8, ptr %7, i64 108
  store i32 8, ptr %13, align 4
  %14 = getelementptr inbounds i8, ptr %7, i64 104
  %15 = getelementptr inbounds i8, ptr %7, i64 112
  store i8 0, ptr %15, align 8
  store i8 2, ptr %11, align 1
  %16 = ptrtoint ptr %1 to i64
  store i32 1, ptr %14, align 8
  store i64 %16, ptr %9, align 8
  call void @_ZN9JavaCalls12call_specialEP9JavaValueP5KlassP6SymbolS5_P17JavaCallArgumentsP10JavaThread(ptr noundef %0, ptr noundef %2, ptr noundef %3, ptr noundef %4, ptr noundef nonnull %7, ptr noundef %5)
  ret void
}